; Function Attrs: nounwind uwtable
define ptr @l_Lean_Compiler_LCNF_Code_mapFVarM___rarg___lambda__6(ptr noundef %0, ptr noundef %1, ptr noundef %2, ptr noundef %3, ptr noundef %4, ptr noundef %5, ptr noundef %6, ptr noundef %7, ptr noundef %8) #0 {
  %10 = getelementptr inbounds nuw i8, ptr %0, i64 40
  %11 = load ptr, ptr %10, align 8, !tbaa !4
  %12 = ptrtoint ptr %11 to i64
  %13 = and i64 %12, 1
  %.not = icmp eq i64 %13, 0
  br i1 %.not, label %14, label %lean_inc.exit35

14:                                               ; preds = %9
  %.val.i = load i32, ptr %11, align 4, !tbaa !8
  %15 = icmp sgt i32 %.val.i, 0
  br i1 %15, label %16, label %18, !prof !13

16:                                               ; preds = %14
  %17 = add nuw i32 %.val.i, 1
  store i32 %17, ptr %11, align 4, !tbaa !8
  br label %lean_inc.exit35

18:                                               ; preds = %14
  %.not.i = icmp eq i32 %.val.i, 0
  br i1 %.not.i, label %lean_inc.exit35, label %19

19:                                               ; preds = %18
  tail call void @lean_inc_ref_cold(ptr noundef nonnull %11) #4
  br label %lean_inc.exit35

lean_inc.exit35:                                  ; preds = %19, %18, %16, %9
  %20 = ptrtoint ptr %3 to i64
  %21 = and i64 %20, 1
  %.not48 = icmp eq i64 %21, 0
  br i1 %.not48, label %22, label %lean_inc.exit34

22:                                               ; preds = %lean_inc.exit35
  %.val.i36 = load i32, ptr %3, align 4, !tbaa !8
  %23 = icmp sgt i32 %.val.i36, 0
  br i1 %23, label %24, label %26, !prof !13

24:                                               ; preds = %22
  %25 = add nuw i32 %.val.i36, 1
  store i32 %25, ptr %3, align 4, !tbaa !8
  br label %lean_inc.exit34

26:                                               ; preds = %22
  %.not.i37 = icmp eq i32 %.val.i36, 0
  br i1 %.not.i37, label %lean_inc.exit34, label %27

27:                                               ; preds = %26
  tail call void @lean_inc_ref_cold(ptr noundef nonnull %3) #4
  br label %lean_inc.exit34

lean_inc.exit34:                                  ; preds = %27, %26, %24, %lean_inc.exit35
  %28 = ptrtoint ptr %2 to i64
  %29 = and i64 %28, 1
  %.not49 = icmp eq i64 %29, 0
  br i1 %.not49, label %30, label %lean_inc.exit33

30:                                               ; preds = %lean_inc.exit34
  %.val.i39 = load i32, ptr %2, align 4, !tbaa !8
  %31 = icmp sgt i32 %.val.i39, 0
  br i1 %31, label %32, label %34, !prof !13

32:                                               ; preds = %30
  %33 = add nuw i32 %.val.i39, 1
  store i32 %33, ptr %2, align 4, !tbaa !8
  br label %lean_inc.exit33

34:                                               ; preds = %30
  %.not.i40 = icmp eq i32 %.val.i39, 0
  br i1 %.not.i40, label %lean_inc.exit33, label %35

35:                                               ; preds = %34
  tail call void @lean_inc_ref_cold(ptr noundef nonnull %2) #4
  br label %lean_inc.exit33

lean_inc.exit33:                                  ; preds = %35, %34, %32, %lean_inc.exit34
  %36 = ptrtoint ptr %1 to i64
  %37 = and i64 %36, 1
  %.not50 = icmp eq i64 %37, 0
  br i1 %.not50, label %38, label %lean_inc.exit32

38:                                               ; preds = %lean_inc.exit33
  %.val.i42 = load i32, ptr %1, align 4, !tbaa !8
  %39 = icmp sgt i32 %.val.i42, 0
  br i1 %39, label %40, label %42, !prof !13

40:                                               ; preds = %38
  %41 = add nuw i32 %.val.i42, 1
  store i32 %41, ptr %1, align 4, !tbaa !8
  br label %lean_inc.exit32

42:                                               ; preds = %38
  %.not.i43 = icmp eq i32 %.val.i42, 0
  br i1 %.not.i43, label %lean_inc.exit32, label %43

43:                                               ; preds = %42
  tail call void @lean_inc_ref_cold(ptr noundef nonnull %1) #4
  br label %lean_inc.exit32

lean_inc.exit32:                                  ; preds = %43, %42, %40, %lean_inc.exit33
  %44 = tail call ptr @l_Lean_Compiler_LCNF_Code_mapFVarM___rarg(ptr noundef %1, ptr noundef %2, ptr noundef %3, ptr noundef %11)
  %45 = ptrtoint ptr %7 to i64
  %46 = and i64 %45, 1
  %.not51 = icmp eq i64 %46, 0
  br i1 %.not51, label %47, label %lean_inc.exit

47:                                               ; preds = %lean_inc.exit32
  %.val.i45 = load i32, ptr %7, align 4, !tbaa !8
  %48 = icmp sgt i32 %.val.i45, 0
  br i1 %48, label %49, label %51, !prof !13

49:                                               ; preds = %47
  %50 = add nuw i32 %.val.i45, 1
  store i32 %50, ptr %7, align 4, !tbaa !8
  br label %lean_inc.exit

51:                                               ; preds = %47
  %.not.i46 = icmp eq i32 %.val.i45, 0
  br i1 %.not.i46, label %lean_inc.exit, label %52

52:                                               ; preds = %51
  tail call void @lean_inc_ref_cold(ptr noundef nonnull %7) #4
  br label %lean_inc.exit

lean_inc.exit:                                    ; preds = %52, %51, %49, %lean_inc.exit32
  tail call void @lean_inc_heartbeat() #4
  %53 = tail call noalias ptr @mi_malloc_small(i64 noundef 96) #4
  %54 = icmp eq ptr %53, null
  br i1 %54, label %55, label %lean_alloc_closure.exit

55:                                               ; preds = %lean_inc.exit
  tail call void @lean_internal_panic_out_of_memory() #5
  unreachable

lean_alloc_closure.exit:                          ; preds = %lean_inc.exit
  %56 = getelementptr inbounds nuw i8, ptr %53, i64 4
  store i32 1, ptr %53, align 4, !tbaa !8
  store i32 -184549280, ptr %56, align 4
  %57 = getelementptr inbounds nuw i8, ptr %53, i64 8
  store ptr @l_Lean_Compiler_LCNF_Code_mapFVarM___rarg___lambda__5, ptr %57, align 8, !tbaa !4
  %58 = getelementptr inbounds nuw i8, ptr %53, i64 16
  store i16 10, ptr %58, align 8, !tbaa !11
  %59 = getelementptr inbounds nuw i8, ptr %53, i64 18
  store i16 9, ptr %59, align 2, !tbaa !11
  %60 = getelementptr inbounds nuw i8, ptr %53, i64 24
  store ptr %0, ptr %60, align 8, !tbaa !4
  %61 = getelementptr inbounds nuw i8, ptr %53, i64 32
  store ptr %8, ptr %61, align 8, !tbaa !4
  %62 = getelementptr inbounds nuw i8, ptr %53, i64 40
  store ptr %4, ptr %62, align 8, !tbaa !4
  %63 = getelementptr inbounds nuw i8, ptr %53, i64 48
  store ptr %1, ptr %63, align 8, !tbaa !4
  %64 = getelementptr inbounds nuw i8, ptr %53, i64 56
  store ptr %2, ptr %64, align 8, !tbaa !4
  %65 = getelementptr inbounds nuw i8, ptr %53, i64 64
  store ptr %3, ptr %65, align 8, !tbaa !4
  %66 = getelementptr inbounds nuw i8, ptr %53, i64 72
  store ptr %5, ptr %66, align 8, !tbaa !4
  %67 = getelementptr inbounds nuw i8, ptr %53, i64 80
  store ptr %6, ptr %67, align 8, !tbaa !4
  %68 = getelementptr inbounds nuw i8, ptr %53, i64 88
  store ptr %7, ptr %68, align 8, !tbaa !4
  %69 = tail call ptr @lean_apply_4(ptr noundef %7, ptr noundef nonnull inttoptr (i64 1 to ptr), ptr noundef nonnull inttoptr (i64 1 to ptr), ptr noundef %44, ptr noundef nonnull %53) #4
  ret ptr %69
}